(dp0
I0
I1
sL1L
I36
sL2L
I16
sL3L
I1
sL4L
I1
sL5L
I2
sL6L
I2
sL7L
I2
sL8L
I1
sL9L
I1
sL10L
I1
sL11L
I1
sL12L
I1
sL13L
I12
sL14L
I3
sL15L
I1
sL16L
I1
sL17L
I1
sL18L
I4
sL19L
I4
sL20L
I3
sL21L
I2
sL22L
I4
sL23L
I1
sL24L
I3
sL25L
I1
sL26L
I7
sL27L
I1
sL28L
I1
sL29L
I4
sL30L
I1
sL31L
I2
sL32L
I3
sL33L
I1
sL34L
I2
sL35L
I1
sL36L
I1
sL37L
I1
sL38L
I1
sL39L
I1
sL40L
I1
sL41L
I1
sL42L
I1
sL43L
I1
sL44L
I1
sL45L
I1
sL46L
I1
sL47L
I1
sL48L
I11
sL49L
I2
sL50L
I1
sL51L
I1
sL52L
I1
sL53L
I1
sL54L
I5
sL55L
I22
sL56L
I2
sL57L
I7
sL58L
I4
sL59L
I1
sL60L
I1
sL61L
I1
sL62L
I2
sL63L
I1
sL64L
I1
sL65L
I1
sL66L
I2
sL67L
I1
sL68L
I1
sL69L
I2
sL70L
I1
sL71L
I1
sL72L
I1
sL73L
I1
sL74L
I1
sL75L
I1
sL76L
I1
sL77L
I1
sL78L
I1
sL79L
I2
sL80L
I1
sL81L
I1
sL82L
I5
sL83L
I1
sL84L
I1
sL85L
I1
sL86L
I1
sL87L
I1
sL88L
I2
sL89L
I1
sL90L
I1
sL91L
I59
sL92L
I1
sL93L
I1
sL94L
I1
sL95L
I1
sL96L
I1
sL97L
I6
sL98L
I2
sL99L
I3
sL100L
I3
sL101L
I1
sL102L
I1
sL103L
I1
sL104L
I1
sL105L
I1
sL106L
I1
sL107L
I1
sL108L
I2
sL109L
I1
sL110L
I2
sL111L
I1
sL112L
I5
sL113L
I1
sL114L
I1
sL115L
I1
sL116L
I1
sL117L
I1
sL118L
I2
sL119L
I3
sL120L
I1
sL121L
I2
sL122L
I1
sL123L
I1
sL124L
I1
sL125L
I1
sL126L
I1
sL127L
I1
sL128L
I1
sL129L
I1
sL130L
I1
sL131L
I1
sL132L
I6
sL133L
I25
sL134L
I2
sL135L
I3
sL136L
I2
sL137L
I2
sL138L
I3
sL139L
I4
sL140L
I2
sL141L
I3
sL142L
I1
sL143L
I1
sL144L
I1
sL145L
I2
sL146L
I2
sL147L
I3
sL148L
I3
sL149L
I3
sL150L
I2
sL151L
I3
sL152L
I1
sL153L
I1
sL154L
I2
sL155L
I1
sL156L
I1
sL157L
I1
sL158L
I2
sL159L
I1
sL160L
I3
sL161L
I2
sL162L
I1
sL163L
I4
sL164L
I1
sL165L
I17
sL166L
I1
sL167L
I3
sL168L
I1
sL169L
I1
sL170L
I1
sL171L
I1
sL172L
I1
sL173L
I1
sL174L
I1
sL175L
I1
sL176L
I1
sL177L
I2
sL178L
I1
sL179L
I2
sL180L
I1
sL181L
I2
sL182L
I3
sL183L
I1
sL184L
I6
sL185L
I6
sL186L
I3
sL187L
I1
sL188L
I2
sL189L
I6
sL190L
I2
sL191L
I4
sL192L
I1
sL193L
I1
sL194L
I12
sL195L
I5
sL196L
I1
sL197L
I1
sL198L
I5
sL199L
I2
sL200L
I2
sL201L
I1
sL202L
I8
sL203L
I1
sL204L
I4
sL205L
I1
sL206L
I1
sL207L
I1
sL208L
I1
sL209L
I1
sL210L
I1
sL211L
I1
sL212L
I1
sL213L
I1
sL214L
I1
sL215L
I1
sL216L
I1
sL217L
I1
sL218L
I1
sL219L
I6
sL220L
I7
sL221L
I1
sL222L
I8
sL223L
I1
sL224L
I3
sL225L
I5
sL226L
I1
sL227L
I3
sL228L
I2
sL229L
I2
sL230L
I1
sL231L
I3
sL232L
I1
sL233L
I1
sL234L
I3
sL235L
I1
sL236L
I2
sL237L
I6
sL238L
I1
sL239L
I2
sL240L
I3
sL241L
I1
sL242L
I2
sL243L
I1
sL244L
I4
sL245L
I1
sL246L
I8
sL247L
I4
sL248L
I1
sL249L
I6
sL250L
I1
sL251L
I3
sL252L
I2
sL253L
I2
sL254L
I3
sL255L
I6
sL256L
I2
sL257L
I3
sL258L
I3
sL259L
I2
sL260L
I5
sL261L
I2
sL262L
I3
sL263L
I1
sL264L
I13
sL265L
I3
sL266L
I4
sL267L
I6
sL268L
I6
sL269L
I2
sL270L
I4
sL271L
I1
sL272L
I2
sL273L
I1
sL274L
I1
sL275L
I2
sL276L
I5
sL277L
I5
sL278L
I1
sL279L
I3
sL280L
I2
sL281L
I2
sL282L
I1
sL283L
I6
sL284L
I1
sL285L
I1
sL286L
I5
sL287L
I2
sL288L
I2
sL289L
I1
sL290L
I4
sL291L
I2
sL292L
I6
sL293L
I1
sL294L
I3
sL295L
I1
sL296L
I1
sL297L
I2
sL298L
I1
sL299L
I5
sL300L
I1
sL301L
I1
sL302L
I1
sL303L
I1
sL304L
I1
sL305L
I2
sL306L
I1
sL307L
I1
sL308L
I1
sL309L
I2
sL310L
I1
sL311L
I1
sL312L
I1
sL313L
I1
sL314L
I4
sL315L
I3
sL316L
I4
sL317L
I2
sL318L
I1
sL319L
I1
sL320L
I2
sL321L
I6
sL322L
I4
sL323L
I2
sL324L
I1
sL325L
I3
sL326L
I1
sL327L
I3
sL328L
I2
sL329L
I1
sL330L
I2
sL331L
I1
sL332L
I1
sL333L
I1
sL334L
I3
sL335L
I5
sL336L
I1
sL337L
I1
sL338L
I6
sL339L
I5
sL340L
I1
sL341L
I1
sL342L
I1
sL343L
I1
sL344L
I1
sL345L
I2
sL346L
I1
sL347L
I1
sL348L
I1
sL349L
I2
sL350L
I1
sL351L
I2
sL352L
I2
sL353L
I1
sL354L
I1
sL355L
I2
sL356L
I1
sL357L
I1
sL358L
I2
sL359L
I3
sL360L
I1
sL361L
I2
sL362L
I3
sL363L
I1
sL364L
I3
sL365L
I2
sL366L
I2
sL367L
I2
sL368L
I1
sL369L
I2
sL370L
I1
sL371L
I1
sL372L
I1
sL373L
I1
sL374L
I11
sL375L
I18
sL376L
I5
sL377L
I1
sL383L
I2
sL384L
I1
sL385L
I1
sL386L
I1
sL387L
I1
sL388L
I1
sL389L
I4
sL390L
I1
sL391L
I14
sL392L
I2
sL393L
I3
sL394L
I4
sL395L
I3
sL396L
I2
sL397L
I2
sL398L
I1
sL399L
I10
sL400L
I2
sL401L
I1
sL402L
I1
sL403L
I1
sL404L
I1
sL405L
I1
sL406L
I1
sL407L
I2
sL408L
I1
sL409L
I3
sL410L
I1
sL411L
I5
sL412L
I1
sL413L
I1
sL414L
I20
sL415L
I1
sL416L
I4
sL417L
I1
sL418L
I14
sL419L
I1
sL420L
I1
sL421L
I2
sL422L
I6
sL423L
I1
sL424L
I7
sL425L
I24
sL426L
I2
sL427L
I5
sL428L
I1
sL429L
I5
sL430L
I1
sL431L
I1
sL432L
I1
sL433L
I1
sL434L
I7
sL435L
I2
sL436L
I3
sL437L
I10
sL438L
I1
sL439L
I1
sL440L
I3
sL441L
I2
sL442L
I5
sL443L
I3
sL444L
I1
sL445L
I3
sL446L
I1
sL447L
I1
sL448L
I2
sL449L
I1
sL450L
I1
sL451L
I1
sL452L
I2
sL453L
I6
sL454L
I1
sL455L
I1
sL456L
I1
sL457L
I1
sL458L
I1
sL459L
I1
sL460L
I2
sL461L
I1
sL462L
I31
sL463L
I6
sL464L
I1
sL465L
I11
sL466L
I1
sL467L
I1
sL468L
I2
sL469L
I9
sL470L
I5
sL471L
I5
sL472L
I3
sL473L
I2
sL474L
I2
sL475L
I1
sL476L
I1
sL477L
I3
sL478L
I31
sL479L
I17
sL480L
I1
sL481L
I1
sL482L
I3
sL483L
I4
sL484L
I1
sL485L
I4
sL486L
I1
sL487L
I4
sL488L
I1
sL489L
I1
sL490L
I7
sL491L
I2
sL492L
I1
sL493L
I40
sL499L
I4
sL500L
I1
sL501L
I1
sL502L
I1
sL503L
I1
sL504L
I1
sL505L
I1
sL506L
I8
sL507L
I22
sL508L
I1
sL509L
I2
sL510L
I2
sL511L
I1
sL512L
I1
sL513L
I1
sL514L
I1
sL515L
I1
sL516L
I6
sL517L
I2
sL518L
I1
sL519L
I15
sL520L
I5
sL576L
I2
sL577L
I10
sL578L
I1
sL585L
I10
sL586L
I1
sL587L
I1
sL588L
I1
sL595L
I2
sL596L
I1
sL597L
I2
sL598L
I1
sL599L
I1
sL600L
I1
sL625L
I1
sL626L
I1
sL627L
I1
sL628L
I1
sL629L
I1
sL630L
I3
sL631L
I1
sL632L
I2
sL633L
I1
sL634L
I7
sL635L
I1
sL636L
I1
sL637L
I2
sL638L
I2
sL639L
I1
sL640L
I1
sL641L
I1
sL642L
I1
sL643L
I8
sL644L
I1
sL645L
I1
sL646L
I2
sL647L
I1
sL648L
I2
sL649L
I1
sL650L
I1
sL651L
I2
sL652L
I6
sL653L
I1
sL654L
I1
sL655L
I2
sL656L
I2
sL657L
I1
sL658L
I1
sL659L
I1
sL660L
I2
sL661L
I2
sL662L
I1
sL663L
I5
sL664L
I1
sL665L
I1
sL666L
I1
sL667L
I1
sL668L
I9
sL669L
I1
sL670L
I2
sL671L
I1
sL672L
I1
sL673L
I1
sL674L
I1
sL675L
I1
sL676L
I1
sL677L
I1
sL678L
I2
sL679L
I2
sL680L
I1
sL681L
I1
sL682L
I16
sL683L
I1
sL684L
I1
sL685L
I2
sL686L
I1
sL687L
I1
sL688L
I4
sL689L
I1
sL690L
I1
sL691L
I1
sL692L
I1
sL693L
I1
sL694L
I1
sL695L
I2
sL696L
I1
sL697L
I1
sL698L
I1
sL699L
I4
sL700L
I6
sL701L
I1
sL702L
I3
sL703L
I1
sL704L
I1
sL705L
I1
sL706L
I2
sL707L
I2
sL708L
I1
sL709L
I1
sL710L
I3
sL711L
I1
sL712L
I1
sL713L
I2
sL714L
I1
sL715L
I1
sL716L
I1
sL717L
I1
sL718L
I2
sL719L
I2
sL720L
I1
sL721L
I1
sL722L
I3
sL723L
I1
sL724L
I1
sL725L
I1
sL726L
I1
sL727L
I3
sL728L
I1
sL729L
I2
sL730L
I1
sL731L
I1
sL732L
I1
sL733L
I1
sL734L
I1
sL735L
I1
sL736L
I2
sL737L
I1
sL738L
I4
sL739L
I2
sL740L
I6
sL741L
I1
sL742L
I1
sL743L
I1
sL744L
I1
sL745L
I1
sL746L
I10
sL747L
I1
sL748L
I1
sL749L
I1
sL750L
I2
sL751L
I1
sL752L
I1
sL753L
I1
sL754L
I3
sL1351L
I2
sL1352L
I5
sL1353L
I1
sL1354L
I1
sL1355L
I1
sL1356L
I1
sL1357L
I4
sL1358L
I4
sL1359L
I1
sL1360L
I1
sL1361L
I1
sL1362L
I1
sL1363L
I1
sL1364L
I1
sL1365L
I1
sL1366L
I1
sL1367L
I1
sL1368L
I1
sL1369L
I1
sL1370L
I4
sL1371L
I1
sL1372L
I2
sL1373L
I1
sL1374L
I1
sL1375L
I3
sL1376L
I1
sL1377L
I15
sL1378L
I5
sL1379L
I9
sL1380L
I1
sL1381L
I1
sL1382L
I1
sL1383L
I1
sL1384L
I2
sL1385L
I1
sL1386L
I1
sL1387L
I1
sL1388L
I1
sL1389L
I1
sL1390L
I1
sL1391L
I1
sL1392L
I1
sL1393L
I1
sL1394L
I1
sL1395L
I1
sL1396L
I1
sL1397L
I1
sL1398L
I1
sL1399L
I3
sL1400L
I25
sL1401L
I1
sL1402L
I3
sL1403L
I1
sL1404L
I4
sL1405L
I1
sL1406L
I1
sL1407L
I2
sL1408L
I1
sL1409L
I1
sL1410L
I10
sL1411L
I2
sL1412L
I2
sL1413L
I5
sL1414L
I2
sL1415L
I1
sL1416L
I1
sL1417L
I1
sL1418L
I1
sL1419L
I1
sL1420L
I1
sL1421L
I1
sL1422L
I1
sL1423L
I7
sL1424L
I1
sL1425L
I2
sL1426L
I3
sL1427L
I2
sL1428L
I1
sL1429L
I7
sL1430L
I1
sL1431L
I2
sL1432L
I1
sL1433L
I1
sL1434L
I1
sL1435L
I1
sL1436L
I5
sL1437L
I1
sL1438L
I1
sL1439L
I2
sL1440L
I1
sL1441L
I3
sL1442L
I3
sL1443L
I1
sL1444L
I1
sL1445L
I6
sL1446L
I1
sL1447L
I1
sL1448L
I4
sL1449L
I1
sL1450L
I1
sL1451L
I4
sL1452L
I1
sL1453L
I1
sL1454L
I1
sL1455L
I2
sL1456L
I1
sL1457L
I1
sL1458L
I3
sL1459L
I2
sL1460L
I1
sL1461L
I1
sL1462L
I2
sL1463L
I1
sL1464L
I1
sL1465L
I3
sL1466L
I1
sL1467L
I1
sL1468L
I1
sL1469L
I1
sL1470L
I3
sL1471L
I2
sL1472L
I1
sL1473L
I1
sL1474L
I1
sL1475L
I1
sL1476L
I2
sL1477L
I1
sL1478L
I1
sL1479L
I4
sL1480L
I2
sL1481L
I2
sL1482L
I1
sL1483L
I6
sL1484L
I1
sL1485L
I1
sL1486L
I1
sL1487L
I2
sL1488L
I1
sL1489L
I1
sL1490L
I1
sL1491L
I1
sL1492L
I1
sL1493L
I1
sL1494L
I1
sL1495L
I1
sL1496L
I1
sL1497L
I1
sL1498L
I13
sL1499L
I1
sL1500L
I4
sL1501L
I1
sL1502L
I2
sL1503L
I1
sL1504L
I4
sL1505L
I3
sL1506L
I1
sL1507L
I1
sL1508L
I1
sL1509L
I3
sL1510L
I1
sL1511L
I1
sL1512L
I1
sL1513L
I4
sL1514L
I1
sL1515L
I1
sL1516L
I1
sL1517L
I1
sL1518L
I1
sL1519L
I3
sL1520L
I3
sL1521L
I2
sL1522L
I1
sL1523L
I1
sL1524L
I3
sL1525L
I5
sL1526L
I1
sL1527L
I1
sL1528L
I6
sL1529L
I1
sL1530L
I1
sL1531L
I1
sL1532L
I1
sL1539L
I1
sL2136L
I1
sL2137L
I1
sL2138L
I1
sL2139L
I1
sL2140L
I1
sL2141L
I4
sL2142L
I2
sL2143L
I1
sL2144L
I2
sL2145L
I3
sL2146L
I2
sL2149L
I1
sL2150L
I1
sL2151L
I2
sL2152L
I1
sL2153L
I2
sL2154L
I1
sL2155L
I1
sL2156L
I3
sL2157L
I1
sL2158L
I2
sL2159L
I1
sL2160L
I1
sL2161L
I1
sL2162L
I1
sL2163L
I1
sL2164L
I1
sL2165L
I1
sL2166L
I1
sL2167L
I5
sL2168L
I1
sL2169L
I1
sL2170L
I1
sL2171L
I1
sL2172L
I1
sL2173L
I1
sL2174L
I1
sL2175L
I1
sL2176L
I2
sL2177L
I4
sL2178L
I2
sL2179L
I1
sL2180L
I1
sL2181L
I2
sL2182L
I3
sL2183L
I5
sL2184L
I15
sL2185L
I1
sL2186L
I1
sL2187L
I1
sL2188L
I1
sL2189L
I1
sL2190L
I1
sL2191L
I1
sL2192L
I1
sL2193L
I1
sL2194L
I3
sL2195L
I1
sL2196L
I1
sL2197L
I2
sL2198L
I1
sL2199L
I3
sL2200L
I1
sL2201L
I1
sL2202L
I1
sL2203L
I1
sL2204L
I2
sL2205L
I1
sL2206L
I1
sL2207L
I1
sL2208L
I7
sL2209L
I1
sL2210L
I1
sL2211L
I1
sL2212L
I1
sL2213L
I1
sL2214L
I1
sL2215L
I1
sL2216L
I1
sL2217L
I1
sL2218L
I2
sL2219L
I1
sL2220L
I2
sL2221L
I1
sL2222L
I4
sL2223L
I1
sL2224L
I1
sL2225L
I2
sL2226L
I1
sL2227L
I1
sL2228L
I1
sL2229L
I1
sL2230L
I3
sL2231L
I4
sL2232L
I1
sL2233L
I1
sL2234L
I6
sL2235L
I1
sL2236L
I1
sL2237L
I1
sL2238L
I3
sL2239L
I1
sL2240L
I3
sL2241L
I1
sL2242L
I3
sL2243L
I3
sL2244L
I1
sL2245L
I1
sL2246L
I1
sL2247L
I1
sL2248L
I2
sL2249L
I1
sL2250L
I1
sL2251L
I5
sL2252L
I9
sL2253L
I2
sL2254L
I1
sL2255L
I1
sL2256L
I1
sL2257L
I1
sL2258L
I1
sL2259L
I2
sL2260L
I2
sL2261L
I1
sL2262L
I1
sL2263L
I4
sL2264L
I1
sL2265L
I1
sL2266L
I1
sL2267L
I1
sL2268L
I2
sL2269L
I1
sL2270L
I2
sL2271L
I1
sL2272L
I2
sL2273L
I1
sL2274L
I1
sL2275L
I2
sL2276L
I1
sL2277L
I1
sL2278L
I1
sL2279L
I2
sL2280L
I1
sL2281L
I1
sL2282L
I3
sL2283L
I1
sL2284L
I1
sL2285L
I1
sL2286L
I1
sL2287L
I1
sL2288L
I1
sL2893L
I1
sL2894L
I1
sL2895L
I2
sL2896L
I2
sL2897L
I1
sL2898L
I1
sL2899L
I1
sL2900L
I1
sL2901L
I1
sL2902L
I1
sL2903L
I2
sL2904L
I1
sL2905L
I1
sL2906L
I1
sL2907L
I1
sL2908L
I8
sL2909L
I1
sL2910L
I1
sL2911L
I2
sL2912L
I1
sL2913L
I1
sL2914L
I1
sL2915L
I1
sL2916L
I1
sL2917L
I3
sL2920L
I2
sL2921L
I1
sL2922L
I1
sL2923L
I2
sL2924L
I1
sL2925L
I1
sL2926L
I2
sL2927L
I1
sL2928L
I1
sL2929L
I1
sL2930L
I2
sL2931L
I2
sL2932L
I1
sL2933L
I1
sL2934L
I1
sL2935L
I2
sL2936L
I5
sL2937L
I1
sL2938L
I1
sL2939L
I24
sL2940L
I1
sL2941L
I1
sL2942L
I2
sL2943L
I1
sL2944L
I2
sL2945L
I15
sL2946L
I1
sL2947L
I2
sL2948L
I1
sL2949L
I1
sL2950L
I6
sL2951L
I4
sL2952L
I2
sL2953L
I2
sL2954L
I1
sL2955L
I4
sL2956L
I1
sL2957L
I1
sL2958L
I1
sL2959L
I1
sL2960L
I1
sL2961L
I1
sL2962L
I2
sL2963L
I1
sL2964L
I1
sL2965L
I1
sL2966L
I2
sL2967L
I2
sL2968L
I2
sL2969L
I1
sL2970L
I2
sL2971L
I1
sL2972L
I1
sL2973L
I2
sL2974L
I1
sL2975L
I3
sL2976L
I1
sL2977L
I3
sL2978L
I1
sL2979L
I1
sL2980L
I1
sL2981L
I1
sL2982L
I1
sL2983L
I1
sL2984L
I1
sL2985L
I1
sL2986L
I1
sL2987L
I1
sL2988L
I1
sL2989L
I2
sL2990L
I1
sL2991L
I1
sL2992L
I3
sL2993L
I2
sL2994L
I5
sL2995L
I1
sL2996L
I6
sL2997L
I2
sL2998L
I1
sL2999L
I1
sL3000L
I1
sL3001L
I1
sL3002L
I1
sL3003L
I1
sL3004L
I1
sL3005L
I2
sL3006L
I3
sL3007L
I1
sL3008L
I1
sL3009L
I1
sL3010L
I1
sL3011L
I1
sL3012L
I1
sL3013L
I2
sL3014L
I1
sL3015L
I1
sL3016L
I1
sL3017L
I1
sL3018L
I1
sL3019L
I1
sL3020L
I1
sL3021L
I1
sL3022L
I1
sL3023L
I1
sL3024L
I1
sL3025L
I1
sL3026L
I1
sL3027L
I1
sL3028L
I1
sL3029L
I2
sL3030L
I1
sL3031L
I5
sL3032L
I1
sL3033L
I3
sL3034L
I1
sL3035L
I1
sL3036L
I1
sL3037L
I1
sL3038L
I1
sL3039L
I1
sL3040L
I1
sL3041L
I1
sL3042L
I1
sL3043L
I1
sL3044L
I1
sL3045L
I1
sL3046L
I2
sL3047L
I2
sL3048L
I4
sL3049L
I1
sL3050L
I1
sL3051L
I1
sL3052L
I1
sL3053L
I3
sL3054L
I2
sL3055L
I1
sL3056L
I1
sL3057L
I1
sL3058L
I1
sL3059L
I1
sL3060L
I1
sL3061L
I1
sL3062L
I1
sL3063L
I1
sL3064L
I2
sL3065L
I1
sL3066L
I1
sL3067L
I1
sL3068L
I1
sL3069L
I3
sL3070L
I1
sL3071L
I2
sL3072L
I1
sL3073L
I4
sL3074L
I1
sL3075L
I1
sL3076L
I1
sL3077L
I1
sL3078L
I1
sL3079L
I1
sL3080L
I1
sL3081L
I5
sL3082L
I1
sL3083L
I1
sL3084L
I1
sL3085L
I1
sL3086L
I1
sL3087L
I2
sL3088L
I2
sL3089L
I3
sL3090L
I2
sL3091L
I2
sL3092L
I1
sL3093L
I1
sL3094L
I1
sL3095L
I1
sL3096L
I1
sL3097L
I1
sL3098L
I14
sL3099L
I1
sL3100L
I1
sL3101L
I1
sL3102L
I1
sL3103L
I1
sL3104L
I8
sL3105L
I1
sL3106L
I1
sL3107L
I1
sL3108L
I1
sL3109L
I1
sL3110L
I7
sL3111L
I1
sL3112L
I2
sL3113L
I1
sL3114L
I1
sL3115L
I1
sL3116L
I1
sL3117L
I4
sL3118L
I1
sL3119L
I3
sL3120L
I1
sL3121L
I1
sL3122L
I1
sL3123L
I1
sL3124L
I2
sL3125L
I1
sL3126L
I3
sL3127L
I1
sL3128L
I2
sL3129L
I1
sL3130L
I1
sL3131L
I2
sL3132L
I1
sL3133L
I1
sL3134L
I1
sL3135L
I1
sL3136L
I1
sL3137L
I1
sL3138L
I2
sL3139L
I1
sL3140L
I4
sL3141L
I1
sL3142L
I1
sL3143L
I1
sL3144L
I3
sL3145L
I1
sL3146L
I1
sL3147L
I2
sL3148L
I1
sL3149L
I1
sL3150L
I1
sL3151L
I1
sL3152L
I1
sL3153L
I15
sL3154L
I1
sL3155L
I1
sL3156L
I1
sL3157L
I1
sL3158L
I1
sL3159L
I1
sL3160L
I1
sL3161L
I1
sL3162L
I1
sL3163L
I1
sL3164L
I1
sL3165L
I1
sL3166L
I2
sL3167L
I1
sL3168L
I3
sL3169L
I2
sL3170L
I3
sL3171L
I1
sL3172L
I1
sL3173L
I2
sL3174L
I1
sL3175L
I2
sL3176L
I1
sL3177L
I1
sL3178L
I1
sL3179L
I2
sL3180L
I1
sL3181L
I2
sL3182L
I1
sL3183L
I1
sL3184L
I1
sL3185L
I1
sL3186L
I1
sL3187L
I1
sL3188L
I1
sL3189L
I1
sL3190L
I1
sL3191L
I1
sL3192L
I3
sL3193L
I2
sL3194L
I21
sL3195L
I1
sL3196L
I1
sL3197L
I1
sL3198L
I1
sL3199L
I3
sL3200L
I1
sL3201L
I2
sL3202L
I1
sL3203L
I2
sL3204L
I1
sL3205L
I1
sL3206L
I1
sL3207L
I1
sL3208L
I1
sL3209L
I1
sL3210L
I1
sL3211L
I5
sL3212L
I1
sL3213L
I4
sL3214L
I1
sL3215L
I1
sL3216L
I1
sL3217L
I1
sL3218L
I1
sL3219L
I1
sL3220L
I1
sL3221L
I5
sL3222L
I13
sL3223L
I1
sL3224L
I1
sL3225L
I1
sL3226L
I5
sL3227L
I3
sL3228L
I1
sL3229L
I1
sL3230L
I1
sL3231L
I1
sL3232L
I1
sL3233L
I1
sL3234L
I1
sL3235L
I1
sL3236L
I1
sL3237L
I1
sL3238L
I2
sL3239L
I1
sL3240L
I1
sL3241L
I1
sL3242L
I1
sL3243L
I1
sL3244L
I1
sL3245L
I1
sL3246L
I1
sL3247L
I1
sL3248L
I1
sL3249L
I1
sL3250L
I1
sL3251L
I1
sL3252L
I1
sL3253L
I1
sL3254L
I1
sL3255L
I1
sL3258L
I1
sL3259L
I1
sL3260L
I1
sL3261L
I1
sL3262L
I1
sL3263L
I1
sL3264L
I2
sL3265L
I1
sL3266L
I1
sL3267L
I1
sL3268L
I1
sL3269L
I1
sL3270L
I1
sL3271L
I1
sL3272L
I1
sL3273L
I2
sL3274L
I1
sL3275L
I1
sL3276L
I1
sL3277L
I1
sL3278L
I1
sL3279L
I1
sL3280L
I3
sL3281L
I1
sL3282L
I1
sL3283L
I1
sL3284L
I1
sL3285L
I1
sL3286L
I1
sL3287L
I2
sL3288L
I29
sL3289L
I1
sL3290L
I1
sL3291L
I2
sL3292L
I1
sL3293L
I1
sL3294L
I2
sL3295L
I1
sL3296L
I1
sL3297L
I14
sL3298L
I1
sL3299L
I14
sL3300L
I1
sL3301L
I1
sL3302L
I1
sL3303L
I1
sL3304L
I1
sL3305L
I1
sL3306L
I1
sL3307L
I1
sL3308L
I1
sL3309L
I15
sL3310L
I1
sL3311L
I1
sL3312L
I1
sL3313L
I1
sL3314L
I1
sL3315L
I1
sL3316L
I1
sL3317L
I2
sL3318L
I1
sL3319L
I1
sL3320L
I2
sL3321L
I1
sL3322L
I3
sL3323L
I1
sL3324L
I1
sL3325L
I1
sL3326L
I3
sL3327L
I1
sL3328L
I1
sL3329L
I1
sL3330L
I2
sL3331L
I1
sL3332L
I5
sL3333L
I1
sL3334L
I1
sL3335L
I1
sL3336L
I2
sL3337L
I1
sL3338L
I3
sL3339L
I1
sL3340L
I1
sL3341L
I1
sL3342L
I1
sL3343L
I2
sL3344L
I1
sL3345L
I1
sL3346L
I1
sL3347L
I1
sL3348L
I2
sL3349L
I1
sL3350L
I1
sL3351L
I1
sL3352L
I1
sL3353L
I1
sL3354L
I2
sL3355L
I1
sL3356L
I3
sL3357L
I1
sL3358L
I1
sL3359L
I1
sL3360L
I1
sL3361L
I1
sL3362L
I1
sL3363L
I1
sL3364L
I1
sL3365L
I1
sL3366L
I1
sL3367L
I1
sL3368L
I1
sL3369L
I2
sL3370L
I2
sL3371L
I1
sL3372L
I1
sL3373L
I1
sL3374L
I4
sL3375L
I1
sL3378L
I1
sL3379L
I5
sL3380L
I7
sL3381L
I1
sL3382L
I1
sL3383L
I1
sL3384L
I1
sL3385L
I3
sL3386L
I1
sL3387L
I6
sL3388L
I1
sL3389L
I1
sL3390L
I1
sL3391L
I1
sL3392L
I2
sL3393L
I1
sL3394L
I1
sL3395L
I1
sL3396L
I1
sL3397L
I1
sL3398L
I1
sL3399L
I1
sL3400L
I2
sL3401L
I2
sL3402L
I1
sL3403L
I1
sL3404L
I1
sL3405L
I1
sL3406L
I1
sL3407L
I1
sL3408L
I2
sL3409L
I1
sL3410L
I1
sL3411L
I2
sL3412L
I1
sL3413L
I2
sL3414L
I3
sL3415L
I1
sL3416L
I1
sL3417L
I2
sL3418L
I1
sL3419L
I1
sL3420L
I1
sL3421L
I1
sL3422L
I1
sL3423L
I1
sL3424L
I2
sL3425L
I2
sL3426L
I1
sL3427L
I2
sL3428L
I1
sL3429L
I1
sL3430L
I1
sL3431L
I3
sL3432L
I1
sL3433L
I1
sL3434L
I1
sL3435L
I1
sL3436L
I1
sL3437L
I1
sL3438L
I1
sL3439L
I1
sL3440L
I1
sL3441L
I1
sL3442L
I1
sL3443L
I1
sL3444L
I1
sL3445L
I2
sL3446L
I1
sL3447L
I1
sL3448L
I1
sL3449L
I1
sL3450L
I1
sL3451L
I1
sL3452L
I4
sL3453L
I1
sL3454L
I7
sL3455L
I1
sL3456L
I1
sL3457L
I2
sL3458L
I1
sL3459L
I1
sL3460L
I1
sL3461L
I1
sL3462L
I4
sL3463L
I2
sL3464L
I1
sL3465L
I1
sL3466L
I1
sL3467L
I3
sL3468L
I2
sL3469L
I1
sL3470L
I1
sL3471L
I1
sL3472L
I1
sL3473L
I1
sL3474L
I4
sL3475L
I1
sL3476L
I1
sL3477L
I1
sL3478L
I1
sL3479L
I1
sL3480L
I1
sL3481L
I2
sL3482L
I2
sL3483L
I1
sL3484L
I1
sL3485L
I1
sL3486L
I1
sL3487L
I1
sL3488L
I1
sL3489L
I1
sL3490L
I1
sL3491L
I1
sL3492L
I3
sL3493L
I1
sL3494L
I1
sL3495L
I8
sL3496L
I1
sL3497L
I2
sL3498L
I1
sL3499L
I1
sL3500L
I1
sL3501L
I1
sL3502L
I2
sL3503L
I2
sL3506L
I1
sL3507L
I1
sL3508L
I1
sL3509L
I1
sL3510L
I2
sL3511L
I1
sL3512L
I5
sL3513L
I1
sL3514L
I1
sL3515L
I1
sL3516L
I1
sL3517L
I1
sL3518L
I1
sL3519L
I1
sL3520L
I1
sL3521L
I1
sL3522L
I1
sL3523L
I1
sL3524L
I1
sL3525L
I7
sL3526L
I1
sL3527L
I1
sL3528L
I3
sL3529L
I1
sL3530L
I1
sL3531L
I1
sL3532L
I2
sL3533L
I1
sL3534L
I1
sL3535L
I1
sL3536L
I1
sL3537L
I1
sL3538L
I1
sL3539L
I1
sL3540L
I3
sL3541L
I1
sL3542L
I1
sL3543L
I1
sL3544L
I5
sL3545L
I1
sL3546L
I1
sL3547L
I1
sL3548L
I1
sL3549L
I1
sL3550L
I3
sL3551L
I12
sL3552L
I1
sL3553L
I1
sL3554L
I1
sL3555L
I1
sL3556L
I1
sL3557L
I2
sL3558L
I1
sL3559L
I1
sL3560L
I1
sL3561L
I1
sL3562L
I1
sL3563L
I1
sL3564L
I1
sL3565L
I2
sL3566L
I9
sL3567L
I1
sL3568L
I3
sL3569L
I2
sL3570L
I4
sL3571L
I2
sL3572L
I3
sL3573L
I23
sL3574L
I1
sL3575L
I1
sL3576L
I1
sL3577L
I7
sL3578L
I1
sL3579L
I1
sL3580L
I1
sL3581L
I1
sL3582L
I1
sL3583L
I1
sL3584L
I1
sL3585L
I1
sL3586L
I2
sL3587L
I1
sL3588L
I1
sL3589L
I1
sL3590L
I1
sL3591L
I1
sL3592L
I1
sL3593L
I2
sL3594L
I1
sL3595L
I1
sL3596L
I8
sL3597L
I1
sL3598L
I1
sL3599L
I1
sL3600L
I1
sL3601L
I1
sL3602L
I1
sL3603L
I1
sL3604L
I2
sL3605L
I3
sL3606L
I1
sL3607L
I1
sL3610L
I1
sL3611L
I1
sL3612L
I1
sL3613L
I1
sL3614L
I1
sL3615L
I1
sL3616L
I1
sL3617L
I2
sL3618L
I1
sL3619L
I1
sL3620L
I1
sL3621L
I1
sL3622L
I1
sL3623L
I1
sL3624L
I1
sL3625L
I1
sL3626L
I1
sL3627L
I1
sL3628L
I1
sL3629L
I1
sL3630L
I1
sL3631L
I1
sL3632L
I1
sL3633L
I1
sL3634L
I1
sL3635L
I1
sL3636L
I6
sL3637L
I1
sL3638L
I1
sL3639L
I1
sL3640L
I6
sL3641L
I6
sL3642L
I1
sL3643L
I1
sL3644L
I1
sL3645L
I1
sL3646L
I1
sL3647L
I1
sL3648L
I1
sL3649L
I1
sL3650L
I1
sL3651L
I4
sL3652L
I1
sL3653L
I5
sL3654L
I2
sL3655L
I1
sL3656L
I1
sL3657L
I1
sL3658L
I1
sL3659L
I3
sL3660L
I1
sL3661L
I1
sL3662L
I1
sL3663L
I1
sL3664L
I1
sL3665L
I1
sL3666L
I1
sL3667L
I1
sL3675L
I1
sL3676L
I1
sL3677L
I1
sL3678L
I2
sL3679L
I1
sL3680L
I1
sL3681L
I2
sL3682L
I1
sL3683L
I1
sL3684L
I1
sL3685L
I7
sL3686L
I1
sL3687L
I1
sL3688L
I1
sL3689L
I6
sL3690L
I1
sL3691L
I2
sL3692L
I1
sL3693L
I1
sL3694L
I1
sL3695L
I1
sL3696L
I1
sL3697L
I3
sL3698L
I1
sL3699L
I1
sL3700L
I1
sL3701L
I1
sL3702L
I1
sL3703L
I1
sL3704L
I1
sL3705L
I2
sL3706L
I1
sL3707L
I1
sL3708L
I1
sL3709L
I1
sL3710L
I2
sL3711L
I2
sL3712L
I1
sL3713L
I1
sL3714L
I1
sL3715L
I2
sL3716L
I1
sL3717L
I2
sL3718L
I1
sL3719L
I1
sL3720L
I1
sL3721L
I1
sL3722L
I1
sL3723L
I2
sL3724L
I2
sL3725L
I3
sL3726L
I2
sL3727L
I2
sL3728L
I1
sL3729L
I1
sL3730L
I1
sL3731L
I1
sL3732L
I1
sL3733L
I1
sL3734L
I3
sL3735L
I2
sL3736L
I1
sL3737L
I1
sL3738L
I1
sL3739L
I1
sL3740L
I3
sL3741L
I1
sL3742L
I2
sL3743L
I1
sL3744L
I1
sL3745L
I7
sL3746L
I1
sL3747L
I2
sL3748L
I3
sL3749L
I2
sL3750L
I1
sL3751L
I1
sL3752L
I1
sL3753L
I1
sL3754L
I5
sL3755L
I1
sL3756L
I1
sL3757L
I1
sL3758L
I1
sL3759L
I1
sL3760L
I1
sL3761L
I2
sL3762L
I1
sL3763L
I1
sL3764L
I1
sL3765L
I1
sL3766L
I1
sL3767L
I1
sL3768L
I1
sL3769L
I1
sL3770L
I1
sL3771L
I1
sL3772L
I1
sL3773L
I1
sL3774L
I1
sL3775L
I4
sL3776L
I1
sL3777L
I1
sL3778L
I2
sL3779L
I1
sL3780L
I1
sL3781L
I1
sL3782L
I1
sL3783L
I5
sL3784L
I1
sL3785L
I3
sL3786L
I1
sL3787L
I1
sL3788L
I1
sL3789L
I4
sL3790L
I1
sL3791L
I1
sL3792L
I1
sL3793L
I2
sL3794L
I1
sL3795L
I1
sL3796L
I1
sL3797L
I3
sL3798L
I2
sL3799L
I1
sL3800L
I2
sL3801L
I2
sL3802L
I1
sL3803L
I1
sL3804L
I1
sL3805L
I8
sL3806L
I1
sL3807L
I3
sL3808L
I1
sL3809L
I2
sL3810L
I1
sL3811L
I1
sL3812L
I1
sL3813L
I1
sL3814L
I1
sL3815L
I1
sL3816L
I1
sL3817L
I1
sL3818L
I1
sL3819L
I1
sL3820L
I2
sL3821L
I1
sL3822L
I1
sL3823L
I1
sL3824L
I1
sL3825L
I1
sL3826L
I1
sL3827L
I1
sL3828L
I1
sL3829L
I1
sL3830L
I1
sL3831L
I5
sL3832L
I5
sL3833L
I3
sL3834L
I2
sL3835L
I1
sL3836L
I1
sL3837L
I3
sL3838L
I1
sL3839L
I1
sL3840L
I1
sL3841L
I1
sL3842L
I2
sL3843L
I1
sL3844L
I6
sL3845L
I1
sL3846L
I2
sL3847L
I2
sL3848L
I1
sL3849L
I8
sL3850L
I1
sL3851L
I1
sL3852L
I1
sL3853L
I1
sL3854L
I2
sL3855L
I1
sL3856L
I1
sL3857L
I1
sL3858L
I1
sL3859L
I1
sL3860L
I1
sL3861L
I1
sL3862L
I1
sL3863L
I1
sL3864L
I1
sL3865L
I1
sL3866L
I7
sL3867L
I1
sL3868L
I1
sL3869L
I1
sL3870L
I1
sL3871L
I2
sL3872L
I1
sL3873L
I2
sL3874L
I3
sL3875L
I1
sL3876L
I1
sL3877L
I1
sL3878L
I2
sL3879L
I1
sL3880L
I1
sL3881L
I1
sL3882L
I2
sL3883L
I2
sL3884L
I1
sL3885L
I1
sL3886L
I3
sL3887L
I1
sL3888L
I2
sL3889L
I2
sL3890L
I1
sL3891L
I1
sL3892L
I1
sL3893L
I1
sL3894L
I1
sL3895L
I1
sL3896L
I1
sL3897L
I1
sL3898L
I1
sL3899L
I3
sL3900L
I2
sL3901L
I1
sL3902L
I1
sL3903L
I1
sL3904L
I4
sL3905L
I1
sL3906L
I1
sL3907L
I4
sL3908L
I1
sL3909L
I1
sL3910L
I1
sL3911L
I3
sL3912L
I3
sL3913L
I1
sL3914L
I1
sL3915L
I5
sL3916L
I1
sL3917L
I2
sL3918L
I1
sL3919L
I1
sL3920L
I1
sL3921L
I1
sL3922L
I1
sL3923L
I5
sL3924L
I1
sL3925L
I1
sL3926L
I1
sL3927L
I1
sL3928L
I2
sL3929L
I7
sL3930L
I1
sL3931L
I1
sL3932L
I1
sL3933L
I1
sL3934L
I1
sL3935L
I1
sL3936L
I1
sL3937L
I1
sL3938L
I1
sL3939L
I2
sL3940L
I5
sL3941L
I2
sL3942L
I1
sL3943L
I1
sL3944L
I4
sL3945L
I3
sL3946L
I1
sL3947L
I1
sL3948L
I14
sL3949L
I1
sL3950L
I1
sL3951L
I7
sL3952L
I2
sL3953L
I1
sL3954L
I1
sL3955L
I2
sL3956L
I1
sL3957L
I2
sL3958L
I1
sL3959L
I1
sL3960L
I1
sL3961L
I2
sL3962L
I4
sL3963L
I1
sL3964L
I1
sL3965L
I1
sL3966L
I4
sL3967L
I1
sL3968L
I1
sL3969L
I3
sL3970L
I1
sL3971L
I1
sL3972L
I2
sL3973L
I1
sL3974L
I1
sL3975L
I1
sL3976L
I1
sL3977L
I7
sL3978L
I2
sL3979L
I2
sL3980L
I1
sL3981L
I1
sL3982L
I1
sL3983L
I1
sL3984L
I1
sL3985L
I1
sL3986L
I2
sL3987L
I3
sL3988L
I6
sL3989L
I1
sL3990L
I1
sL3991L
I2
sL3992L
I1
sL3993L
I1
sL3994L
I3
sL3995L
I1
sL3996L
I3
sL3997L
I1
sL3998L
I1
sL3999L
I1
sL4000L
I1
sL4001L
I1
sL4002L
I8
sL4003L
I1
sL4004L
I3
sL4005L
I1
sL4006L
I5
sL4007L
I1
sL4008L
I1
sL4009L
I2
sL4010L
I1
sL4011L
I1
sL4012L
I1
sL4013L
I1
sL4014L
I1
sL4015L
I2
sL4016L
I2
sL4017L
I1
sL4018L
I1
sL4019L
I1
sL4020L
I1
sL4021L
I1
sL4022L
I1
sL4023L
I3
sL4024L
I1
sL4025L
I1
sL4026L
I3
sL4027L
I1
sL4028L
I1
sL4029L
I2
sL4030L
I2
sL4031L
I1
sL4032L
I1
sL4033L
I1
sL4034L
I1
sL4035L
I1
sL4036L
I1
sL4037L
I3
sL4038L
I4
sL4039L
I4
sL4040L
I1
sL4041L
I1
sL4042L
I3
sL4043L
I1
sL4044L
I26
sL4045L
I2
sL4046L
I4
sL4047L
I4
sL4048L
I1
sL4049L
I3
sL4050L
I1
sL4051L
I3
sL4052L
I1
sL4053L
I1
sL4054L
I1
sL4055L
I1
sL4056L
I5
sL4057L
I1
sL4058L
I1
sL4059L
I1
sL4060L
I1
sL4061L
I1
sL4062L
I1
sL4063L
I1
sL4064L
I1
sL4065L
I1
sL4066L
I2
sL4067L
I1
sL4068L
I1
sL4069L
I1
sL4081L
I1
sL4082L
I2
sL4083L
I2
sL4084L
I2
sL4085L
I5
sL4086L
I1
sL4087L
I1
sL4088L
I1
sL4089L
I1
sL4090L
I1
sL4091L
I1
sL4092L
I2
sL4093L
I1
sL4094L
I2
sL4095L
I2
sL4096L
I1
sL4097L
I4
sL4098L
I2
sL4099L
I2
sL4100L
I1
sL4101L
I1
sL4102L
I1
sL4103L
I1
sL4104L
I1
sL4105L
I2
sL4106L
I2
sL4107L
I1
sL4108L
I1
sL4109L
I1
sL4110L
I1
sL4111L
I1
sL4112L
I1
sL4113L
I2
sL4114L
I1
sL4115L
I2
sL4116L
I1
sL4117L
I1
sL4118L
I1
sL4119L
I1
sL4120L
I1
sL4121L
I1
sL4122L
I1
sL4123L
I1
sL4124L
I1
sL4125L
I1
sL4126L
I1
sL4127L
I4
sL4128L
I1
sL4129L
I1
sL4130L
I1
sL4131L
I4
sL4132L
I1
sL4133L
I2
sL4134L
I1
sL4135L
I1
sL4136L
I2
sL4137L
I1
sL4138L
I2
sL4139L
I1
sL4140L
I1
sL4141L
I1
sL4142L
I11
sL4143L
I1
sL4144L
I1
sL4145L
I5
sL4146L
I1
sL4147L
I2
sL4148L
I1
sL4149L
I1
sL4150L
I1
sL4151L
I1
sL4152L
I1
sL4153L
I1
sL4154L
I1
sL4155L
I3
sL4156L
I1
sL4157L
I1
sL4158L
I1
sL4159L
I1
sL4160L
I1
sL4161L
I1
sL4162L
I12
sL4163L
I1
sL4164L
I1
sL4165L
I1
sL4166L
I1
sL4167L
I1
sL4168L
I1
sL4169L
I1
sL4170L
I1
sL4171L
I1
sL4172L
I2
sL4173L
I1
sL4174L
I1
sL4175L
I1
sL4176L
I1
sL4177L
I1
sL4178L
I1
sL4179L
I7
sL4180L
I1
sL4181L
I5
sL4182L
I1
sL4183L
I1
sL4184L
I5
sL4185L
I2
sL4186L
I1
sL4187L
I1
sL4188L
I1
sL4189L
I2
sL4190L
I1
sL4191L
I1
sL4192L
I1
sL4193L
I1
sL4194L
I1
sL4195L
I1
sL4196L
I1
sL4197L
I1
sL4198L
I1
sL4199L
I1
sL4200L
I2
sL4201L
I1
sL4202L
I4
sL4203L
I1
sL4204L
I1
sL4205L
I1
sL4206L
I1
sL4207L
I2
sL4208L
I1
sL4209L
I1
sL4210L
I3
sL4211L
I1
sL4212L
I1
sL4213L
I1
sL4214L
I2
sL4215L
I1
sL4216L
I3
sL4217L
I2
sL4218L
I1
sL4219L
I3
sL4220L
I1
sL4221L
I1
sL4222L
I1
sL4223L
I1
sL4224L
I1
sL4225L
I1
sL4226L
I1
sL4227L
I1
sL4228L
I1
sL4229L
I1
sL4230L
I1
sL4231L
I1
sL4232L
I1
sL4233L
I1
sL4234L
I3
sL4235L
I1
sL4236L
I1
sL4237L
I1
sL4238L
I2
sL4239L
I2
sL4240L
I1
sL4241L
I1
sL4242L
I1
sL4243L
I2
sL4244L
I1
sL4245L
I1
sL4246L
I1
sL4247L
I2
sL4248L
I2
sL4249L
I2
sL4250L
I1
sL4251L
I1
sL4252L
I1
sL4253L
I1
sL4254L
I2
sL4255L
I2
sL4256L
I2
sL4257L
I1
sL4258L
I1
sL4259L
I5
sL4260L
I1
sL4261L
I1
sL4262L
I1
sL4263L
I2
sL4264L
I2
sL4265L
I1
sL4266L
I1
sL4267L
I1
sL4268L
I4
sL4269L
I1
sL4270L
I1
sL4271L
I5
sL4272L
I1
sL4273L
I1
sL4274L
I1
sL4275L
I1
sL4276L
I1
sL4277L
I1
sL4278L
I4
sL4279L
I2
sL4280L
I1
sL4281L
I2
sL4282L
I1
sL4283L
I3
sL4284L
I1
sL4285L
I1
sL4286L
I1
sL4287L
I1
sL4288L
I1
sL4289L
I1
sL4290L
I1
sL4291L
I1
sL4292L
I1
sL4293L
I2
sL4294L
I1
sL4295L
I1
sL4296L
I1
sL4297L
I1
sL4298L
I1
sL4299L
I1
sL4300L
I1
sL4301L
I1
sL4302L
I1
sL4303L
I1
sL4304L
I3
sL4305L
I1
sL4306L
I7
sL4307L
I1
sL4308L
I1
sL4309L
I5
sL4310L
I1
sL4311L
I1
sL4312L
I1
sL4313L
I1
sL4314L
I2
sL4315L
I1
sL4316L
I1
sL4317L
I3
sL4318L
I1
sL4319L
I1
sL4320L
I1
sL4321L
I2
sL4322L
I1
sL4323L
I2
sL4324L
I3
sL4325L
I1
sL4326L
I2
sL4327L
I5
sL4328L
I1
sL4329L
I2
sL4330L
I1
sL4331L
I1
sL4332L
I2
sL4333L
I1
sL4334L
I1
sL4335L
I1
sL4336L
I1
sL4337L
I1
sL4338L
I1
sL4339L
I4
sL4340L
I5
sL4341L
I1
sL4342L
I10
sL4343L
I1
sL4344L
I10
sL4345L
I1
sL4346L
I1
sL4347L
I1
sL4348L
I1
sL4349L
I1
sL4350L
I1
sL4351L
I1
sL4352L
I1
sL4353L
I1
sL4354L
I1
sL4355L
I1
sL4356L
I1
sL4357L
I1
sL4358L
I1
sL4359L
I1
sL4360L
I1
sL4361L
I1
sL4362L
I6
sL4363L
I6
sL4364L
I1
sL4365L
I3
sL4366L
I1
sL4367L
I1
sL4368L
I1
sL4369L
I1
sL4370L
I3
sL4371L
I1
sL4372L
I4
sL4373L
I1
sL4374L
I1
sL4375L
I1
sL4376L
I7
sL4377L
I1
sL4378L
I1
sL4379L
I1
sL4380L
I1
sL4381L
I3
sL4382L
I1
sL4383L
I9
sL4384L
I1
sL4385L
I12
sL4386L
I1
sL4387L
I1
sL4388L
I1
sL4389L
I15
sL4390L
I1
sL4391L
I2
sL4392L
I1
sL4393L
I1
sL4394L
I1
sL4395L
I1
sL4396L
I1
sL4397L
I1
sL4398L
I1
sL4399L
I1
sL4400L
I1
sL4401L
I1
sL4402L
I4
sL4403L
I1
sL4404L
I1
sL4405L
I1
sL4406L
I1
sL4407L
I1
sL4408L
I2
sL4409L
I1
sL4410L
I3
sL4411L
I1
sL4412L
I1
sL4413L
I1
sL4414L
I2
sL4415L
I1
sL4416L
I4
sL4417L
I1
sL4418L
I1
sL4419L
I5
sL4420L
I1
sL4421L
I1
sL4422L
I1
sL4423L
I1
sL4424L
I1
sL4425L
I1
sL4426L
I2
sL4427L
I1
sL4428L
I1
sL4429L
I1
sL4430L
I1
sL4431L
I1
sL4432L
I1
sL4433L
I2
sL4434L
I1
sL4435L
I3
sL4436L
I1
sL4437L
I1
sL4438L
I1
sL4439L
I2
sL4440L
I1
sL4441L
I1
sL4442L
I1
sL4443L
I1
sL4444L
I1
sL4445L
I1
sL4446L
I12
sL4447L
I1
sL4448L
I2
sL4449L
I1
sL4450L
I24
sL4451L
I1
sL4452L
I1
sL4453L
I1
sL4454L
I1
sL4455L
I1
sL4456L
I1
sL4457L
I1
sL4458L
I1
sL4459L
I1
sL5066L
I1
sL5067L
I1
sL5068L
I1
sL5681L
I3
sL5684L
I1
sL5694L
I1
sL5695L
I2
sL5696L
I1
sL5697L
I2
sL5709L
I3
sL5710L
I1
sL5711L
I1
sL5712L
I1
sL5713L
I1
sL5714L
I1
sL5715L
I1
sL5716L
I1
sL5717L
I1
sL5718L
I2
sL5719L
I1
sL5720L
I1
sL5721L
I1
sL5722L
I2
sL5723L
I1
sL5724L
I1
sL5725L
I5
sL5726L
I1
sL5727L
I2
sL5728L
I1
sL5729L
I2
sL5730L
I1
sL5731L
I1
sL5732L
I1
sL5733L
I1
sL5734L
I1
sL5735L
I1
sL5736L
I6
sL5737L
I1
sL5738L
I1
sL5739L
I1
sL5740L
I1
sL5741L
I1
sL5742L
I1
sL5743L
I1
sL5744L
I1
sL5745L
I2
sL5746L
I1
sL5747L
I2
sL5748L
I1
sL5749L
I2
sL5750L
I1
sL5751L
I1
sL5752L
I1
sL5753L
I1
sL5754L
I3
sL5755L
I1
sL5756L
I3
sL5757L
I1
sL5758L
I1
sL5759L
I7
sL5760L
I1
sL5761L
I1
sL5762L
I2
sL5763L
I1
sL5764L
I1
sL5765L
I5
sL5766L
I1
sL5767L
I1
sL5768L
I1
sL5769L
I1
sL5770L
I3
sL5771L
I1
sL5772L
I1
sL5773L
I1
sL5774L
I1
sL5775L
I3
sL5776L
I1
sL5777L
I1
sL5778L
I21
sL5779L
I1
sL5780L
I1
sL5781L
I4
sL5782L
I1
sL5783L
I3
sL5784L
I2
sL5785L
I2
sL5786L
I2
sL5787L
I1
sL5788L
I1
sL5789L
I1
sL5790L
I1
sL5791L
I3
sL5792L
I4
sL5793L
I1
sL5794L
I1
sL5795L
I1
sL5796L
I2
sL5797L
I1
sL5798L
I1
sL5799L
I3
sL5800L
I1
sL5801L
I1
sL5802L
I2
sL5803L
I1
sL5804L
I1
sL5805L
I8
sL5806L
I1
sL5807L
I1
sL5808L
I3
sL5809L
I1
sL5810L
I1
sL5811L
I16
sL5812L
I1
sL5813L
I3
sL5814L
I1
sL5815L
I1
sL5816L
I1
sL5817L
I1
sL5818L
I1
sL5819L
I2
sL5820L
I6
sL5821L
I1
sL5822L
I1
sL5823L
I1
sL5824L
I3
sL5825L
I1
sL5826L
I1
sL5827L
I1
sL5828L
I1
sL5829L
I1
sL5830L
I1
sL5831L
I1
sL5832L
I1
sL5833L
I3
sL5834L
I1
sL5835L
I2
sL5836L
I1
sL5837L
I6
sL5838L
I1
sL5839L
I1
sL5840L
I1
sL5841L
I9
sL5842L
I1
sL5843L
I1
sL5844L
I1
sL5845L
I1
sL5846L
I19
sL5847L
I1
sL5848L
I1
sL5849L
I1
sL5850L
I1
sL5851L
I1
sL5852L
I2
sL5853L
I1
sL5854L
I1
sL5855L
I2
sL5856L
I1
sL5857L
I1
sL5858L
I2
sL5859L
I2
sL5860L
I1
sL5861L
I1
sL5862L
I1
sL5863L
I5
sL5864L
I5
sL5865L
I1
sL5866L
I1
sL5867L
I1
sL5868L
I2
sL5869L
I1
sL5870L
I3
sL5871L
I4
sL5872L
I1
sL5873L
I1
sL5874L
I2
sL5875L
I3
sL5876L
I1
sL5877L
I2
sL5878L
I2
sL5879L
I1
sL5880L
I3
sL5881L
I1
sL5882L
I1
sL5883L
I1
sL5884L
I2
sL5885L
I1
sL5886L
I1
sL5887L
I3
sL5888L
I1
sL5889L
I2
sL5890L
I1
sL5891L
I1
sL5892L
I1
sL5893L
I1
sL5894L
I3
sL5895L
I1
sL5896L
I1
sL5897L
I1
sL5898L
I2
sL5899L
I1
sL5900L
I2
sL5901L
I2
sL5902L
I2
sL5903L
I4
sL5904L
I1
sL5905L
I2
sL5906L
I1
sL5907L
I1
sL5908L
I1
sL5909L
I1
sL5910L
I4
sL5911L
I1
sL5912L
I1
sL5913L
I1
sL5914L
I2
sL5915L
I1
sL5916L
I2
sL5917L
I3
sL5918L
I1
sL5919L
I1
sL5920L
I1
sL5921L
I2
sL5922L
I5
sL5923L
I1
sL5924L
I1
sL5925L
I2
sL5926L
I2
sL5927L
I1
sL5928L
I2
sL5929L
I5
sL5930L
I1
sL5931L
I3
sL5932L
I4
sL5933L
I1
sL5934L
I1
sL5935L
I2
sL5936L
I1
sL5937L
I1
sL5938L
I1
sL5939L
I1
sL5940L
I1
sL5941L
I1
sL5942L
I1
sL5943L
I1
sL5944L
I1
sL5945L
I4
sL5946L
I2
sL5947L
I1
sL5948L
I1
sL5949L
I1
sL5950L
I3
sL5951L
I2
sL5952L
I1
sL5953L
I3
sL5954L
I1
sL5955L
I3
sL5956L
I1
sL5957L
I3
sL5958L
I1
sL5959L
I3
sL5960L
I1
sL5961L
I1
sL5962L
I1
sL5963L
I1
sL5964L
I2
sL5965L
I1
sL5966L
I1
sL5967L
I1
sL5968L
I1
sL5969L
I3
sL5970L
I1
sL5971L
I1
sL5972L
I4
sL5973L
I1
sL5974L
I1
sL5975L
I1
sL5976L
I5
sL5977L
I6
sL5978L
I1
sL5979L
I1
sL5980L
I1
sL5981L
I1
sL5982L
I2
sL5983L
I1
sL5984L
I1
sL5985L
I1
sL5986L
I2
sL5987L
I2
sL5988L
I1
sL5989L
I1
sL5990L
I2
sL5991L
I1
sL5992L
I1
sL5993L
I2
sL5994L
I1
sL5995L
I1
sL5996L
I1
sL5997L
I2
sL5998L
I1
sL5999L
I4
sL6000L
I1
sL6001L
I1
sL6002L
I1
sL6003L
I1
sL6004L
I3
sL6005L
I3
sL6006L
I1
sL6007L
I1
sL6008L
I12
sL6009L
I3
sL6010L
I5
sL6011L
I1
sL6012L
I8
sL6013L
I1
sL6014L
I1
sL6015L
I1
sL6016L
I1
sL6017L
I1
sL6018L
I3
sL6019L
I1
sL6020L
I1
sL6021L
I1
sL6022L
I7
sL6023L
I1
sL6024L
I1
sL6025L
I1
sL6026L
I3
sL6027L
I1
sL6028L
I4
sL6029L
I1
sL6030L
I1
sL6031L
I1
sL6032L
I1
sL6033L
I1
sL6034L
I1
sL6035L
I2
sL6036L
I1
sL6037L
I1
sL6038L
I2
sL6039L
I2
sL6040L
I1
sL6041L
I1
sL6042L
I1
sL6043L
I4
sL6044L
I1
sL6045L
I3
sL6046L
I4
sL6073L
I1
sL6074L
I1
sL6075L
I2
sL6076L
I16
sL6077L
I9
sL6078L
I1
sL6079L
I2
sL6080L
I3
sL6081L
I2
sL6082L
I1
sL6083L
I1
sL6084L
I6
sL6085L
I1
sL6086L
I1
sL6087L
I3
sL6088L
I2
sL6089L
I3
sL6090L
I1
sL6091L
I1
sL6092L
I1
sL6093L
I1
sL6094L
I1
sL6095L
I1
sL6096L
I1
sL6097L
I1
sL6098L
I1
sL6099L
I1
sL6100L
I1
sL6101L
I1
sL6102L
I1
sL6103L
I1
sL6104L
I2
sL6105L
I1
sL6106L
I1
sL6107L
I1
sL6108L
I1
sL6109L
I1
sL6110L
I2
sL6111L
I2
sL6112L
I1
sL6113L
I3
sL6114L
I1
sL6115L
I1
sL6116L
I1
sL6117L
I15
sL6118L
I1
sL6119L
I2
sL6120L
I3
sL6121L
I1
sL6122L
I1
sL6123L
I1
sL6124L
I1
sL6125L
I1
sL6126L
I1
sL6127L
I1
sL6128L
I1
sL6129L
I2
sL6130L
I1
sL6131L
I1
sL6132L
I1
sL6133L
I1
sL6134L
I2
sL6135L
I13
sL6136L
I2
sL6137L
I3
sL6138L
I1
sL6139L
I1
sL6140L
I2
sL6141L
I1
sL6142L
I1
sL6143L
I1
sL6144L
I1
sL6145L
I1
sL6146L
I3
sL6147L
I1
sL6148L
I3
sL6149L
I1
sL6150L
I1
sL6151L
I2
sL6152L
I1
sL6153L
I1
sL6154L
I4
sL6155L
I1
sL6156L
I1
sL6157L
I1
sL6158L
I6
sL6159L
I1
sL6160L
I3
sL6161L
I1
sL6162L
I1
sL6163L
I1
sL6164L
I2
sL6165L
I1
sL6166L
I2
sL6167L
I1
sL6168L
I1
sL6169L
I1
sL6170L
I1
sL6171L
I1
sL6172L
I4
sL6173L
I1
sL6174L
I2
sL6175L
I1
sL6176L
I1
sL6177L
I2
sL6178L
I1
sL6179L
I1
sL6180L
I1
sL6181L
I1
sL6182L
I1
sL6183L
I4
sL6184L
I1
sL6185L
I1
sL6186L
I1
sL6187L
I1
sL6188L
I1
sL6189L
I1
sL6190L
I1
sL6191L
I1
sL6192L
I2
sL6193L
I1
sL6194L
I1
sL6195L
I2
sL6196L
I12
sL6197L
I1
sL6198L
I5
sL6199L
I1
sL6200L
I1
sL6201L
I2
sL6202L
I11
sL6203L
I1
sL6204L
I3
sL6205L
I1
sL6206L
I1
sL6207L
I2
sL6208L
I1
sL6209L
I2
sL6210L
I1
sL6211L
I1
sL6212L
I1
sL6213L
I1
sL6214L
I1
sL6215L
I1
sL6216L
I1
sL6217L
I1
sL6218L
I1
sL6219L
I2
sL6220L
I2
sL6221L
I3
sL6222L
I1
sL6223L
I4
sL6224L
I2
sL6225L
I1
sL6226L
I1
sL6227L
I1
sL6228L
I1
sL6229L
I1
sL6230L
I1
sL6231L
I1
sL6232L
I2
sL6233L
I1
sL6234L
I1
sL6235L
I1
sL6236L
I1
sL6237L
I2
sL6238L
I2
sL6239L
I2
sL6240L
I1
sL6241L
I1
sL6242L
I1
sL6243L
I1
sL6244L
I1
sL6245L
I3
sL6246L
I3
sL6247L
I1
sL6248L
I2
sL6249L
I1
sL6250L
I1
sL6251L
I1
sL6252L
I1
sL6253L
I1
sL6254L
I2
sL6255L
I5
sL6256L
I1
sL6257L
I2
sL6258L
I1
sL6259L
I11
sL6260L
I4
sL6261L
I4
sL6262L
I2
sL6263L
I1
sL6264L
I2
sL6265L
I1
sL6266L
I1
sL6267L
I1
sL6268L
I2
sL6269L
I1
sL6270L
I1
sL6271L
I3
sL6272L
I1
sL6273L
I2
sL6274L
I1
sL6275L
I1
sL6276L
I2
sL6277L
I4
sL6278L
I1
sL6279L
I1
sL6280L
I1
sL6281L
I2
sL6282L
I1
sL6283L
I2
sL6284L
I1
sL6285L
I2
sL6286L
I1
sL6287L
I2
sL6288L
I1
sL6289L
I1
sL6290L
I1
sL6291L
I4
sL6292L
I3
sL6293L
I1
sL6294L
I2
sL6295L
I2
sL6296L
I4
sL6297L
I2
sL6298L
I1
sL6299L
I1
sL6300L
I1
sL6301L
I2
sL6302L
I1
sL6303L
I1
sL6304L
I1
sL6305L
I1
sL6306L
I1
sL6307L
I1
sL6308L
I2
sL6309L
I5
sL6310L
I1
sL6311L
I4
sL6312L
I1
sL6313L
I1
sL6314L
I1
sL6315L
I1
sL6316L
I1
sL6317L
I2
sL6318L
I1
sL6319L
I1
sL6320L
I1
sL6321L
I1
sL6322L
I1
sL6323L
I1
sL6324L
I4
sL6325L
I1
sL6326L
I1
sL6327L
I1
sL6328L
I1
sL6329L
I3
sL6330L
I1
sL6331L
I1
sL6332L
I1
sL6333L
I3
sL6334L
I3
sL6335L
I1
sL6336L
I13
sL6337L
I1
sL6338L
I1
sL6339L
I1
sL6340L
I2
sL6341L
I1
sL6342L
I1
sL6343L
I1
sL6344L
I1
sL6345L
I1
sL6346L
I4
sL6347L
I4
sL6348L
I1
sL6349L
I1
sL6350L
I2
sL6351L
I2
sL6352L
I1
sL6353L
I3
sL6354L
I1
sL6355L
I1
sL6356L
I1
sL6357L
I1
sL6358L
I5
sL6359L
I1
sL6360L
I1
sL6361L
I1
sL6362L
I1
sL6363L
I1
sL6364L
I1
sL6365L
I1
sL6366L
I2
sL6367L
I1
sL6368L
I3
sL6369L
I1
sL6370L
I2
sL6371L
I1
sL6372L
I3
sL6373L
I1
sL6374L
I1
sL6375L
I1
sL6376L
I1
sL6377L
I1
sL6378L
I1
sL6379L
I1
sL6380L
I1
sL6381L
I1
sL6382L
I1
sL6383L
I3
sL6384L
I1
sL6385L
I1
sL6386L
I1
sL6387L
I1
sL6388L
I1
sL6389L
I3
sL6390L
I1
sL6393L
I1
sL6394L
I1
sL6395L
I1
sL6396L
I1
sL6397L
I1
sL6398L
I1
sL6399L
I1
sL6400L
I1
sL6401L
I1
sL6402L
I1
sL6403L
I1
sL6404L
I1
sL6405L
I1
sL6406L
I1
sL6407L
I1
sL6408L
I2
sL6409L
I1
sL6410L
I1
sL6411L
I1
sL6412L
I4
sL6413L
I1
sL6414L
I1
sL6415L
I1
sL6416L
I3
sL6417L
I1
sL6418L
I2
sL6419L
I3
sL6420L
I1
sL6421L
I1
sL6422L
I1
sL6423L
I3
sL6424L
I2
sL6425L
I1
sL6426L
I1
sL6427L
I1
sL6428L
I1
sL6429L
I1
sL6430L
I1
sL6431L
I1
sL6432L
I1
sL6433L
I1
sL6434L
I1
sL6435L
I1
sL6436L
I1
sL6437L
I1
sL6438L
I1
sL6439L
I1
sL6440L
I1
sL6441L
I1
sL6442L
I1
sL6443L
I15
sL6444L
I2
sL6445L
I2
sL6446L
I2
sL6447L
I1
sL6448L
I1
sL6449L
I2
sL6450L
I1
sL6451L
I1
sL6452L
I1
sL6453L
I1
sL6454L
I2
sL6455L
I1
sL6456L
I2
sL6457L
I1
sL6458L
I1
sL6459L
I1
sL6460L
I1
sL6461L
I1
sL6462L
I1
sL6463L
I1
sL6464L
I1
sL6465L
I1
sL6466L
I1
sL6467L
I1
sL6468L
I1
sL6469L
I1
sL6470L
I2
sL6471L
I1
sL6472L
I1
sL6473L
I2
sL6474L
I1
sL6475L
I5
sL6476L
I2
sL6477L
I1
sL6478L
I1
sL6479L
I1
sL6480L
I2
sL6481L
I1
sL6482L
I1
sL6483L
I3
sL6484L
I1
sL6485L
I1
sL6486L
I1
sL6487L
I1
sL6488L
I1
sL6489L
I1
sL6490L
I1
sL6491L
I2
sL6492L
I1
sL6493L
I1
sL6494L
I1
sL6495L
I4
sL6496L
I1
sL6497L
I1
sL6498L
I5
sL6499L
I7
sL6500L
I1
sL6501L
I2
sL6502L
I2
sL6503L
I2
sL6504L
I6
sL6505L
I2
sL6506L
I2
sL6507L
I1
sL6508L
I1
sL6509L
I1
sL6510L
I1
sL6511L
I1
sL6512L
I1
sL6513L
I2
sL6514L
I1
sL6515L
I1
sL6516L
I1
sL6517L
I2
sL6518L
I1
sL6519L
I4
sL6520L
I2
sL6521L
I1
sL6522L
I1
sL6523L
I2
sL6524L
I1
sL6525L
I1
sL6526L
I2
sL6527L
I1
sL6528L
I1
sL6529L
I1
sL6530L
I1
sL6531L
I1
sL6532L
I1
sL6533L
I1
sL6534L
I1
sL6535L
I1
sL6536L
I2
sL6537L
I1
sL6538L
I1
sL6539L
I1
sL6540L
I1
sL6541L
I8
sL6542L
I2
sL6543L
I3
sL6544L
I1
sL6545L
I1
sL6546L
I1
sL6547L
I1
sL6548L
I3
sL6549L
I2
sL6550L
I1
sL6551L
I1
sL6552L
I1
sL6553L
I1
sL6554L
I2
sL6555L
I1
sL6556L
I1
sL6557L
I1
sL6558L
I1
sL6559L
I1
sL6560L
I1
sL6561L
I1
sL6562L
I8
sL6563L
I1
sL6564L
I1
sL6565L
I1
sL6566L
I2
sL6567L
I1
sL6568L
I3
sL6569L
I1
sL6570L
I1
sL6571L
I1
sL6572L
I2
sL6573L
I2
sL6574L
I1
sL6575L
I2
sL6576L
I1
sL6577L
I1
sL6578L
I1
sL6579L
I1
sL6580L
I1
sL6581L
I2
sL6582L
I2
sL6583L
I1
sL6584L
I7
sL6585L
I4
sL6586L
I2
sL6587L
I1
sL6588L
I1
sL6589L
I1
sL6590L
I1
sL6591L
I1
sL6592L
I2
sL6593L
I1
sL6594L
I1
sL6595L
I1
sL6596L
I1
sL6597L
I2
sL6598L
I1
sL6599L
I9
sL6600L
I1
sL6601L
I1
sL6602L
I1
sL6603L
I1
sL6604L
I1
sL6605L
I1
sL6606L
I3
sL6607L
I2
sL6608L
I1
sL6609L
I1
sL6610L
I2
sL6611L
I1
sL6612L
I4
sL6613L
I2
sL6614L
I1
sL6615L
I1
sL6616L
I1
sL6617L
I1
sL6618L
I1
sL6619L
I1
sL6620L
I1
sL6621L
I1
sL6622L
I2
sL6623L
I1
sL6624L
I1
sL6625L
I1
sL6626L
I2
sL6627L
I1
sL6628L
I1
sL6629L
I1
sL6630L
I1
sL6631L
I1
sL6632L
I1
sL6633L
I1
sL6634L
I1
sL6635L
I1
sL6636L
I2
sL6637L
I1
sL6648L
I1
sL6649L
I2
sL6650L
I1
sL6651L
I6
sL6652L
I1
sL6653L
I1
sL6654L
I1
sL6655L
I2
sL6656L
I2
sL6657L
I1
sL6658L
I2
sL6659L
I9
s.