(dp0
L1L
I36
sL2L
I16
sL3L
I1
sL4L
I1
sL5L
I2
sL6L
I2
sL7L
I2
sL8L
I1
sL9L
I1
sL10L
I1
sL11L
I1
sL12L
I1
sL13L
I12
sL14L
I3
sL15L
I1
sL16L
I1
sL17L
I1
sL18L
I4
sL19L
I4
sL20L
I3
sL21L
I2
sL22L
I4
sL23L
I1
sL24L
I3
sL25L
I1
sL26L
I7
sL27L
I1
sL28L
I1
sL29L
I4
sL30L
I1
sL31L
I2
sL32L
I3
sL33L
I1
sL34L
I2
sL35L
I1
sL36L
I1
sL37L
I1
sL38L
I1
sL39L
I1
sL40L
I1
sL41L
I1
sL42L
I1
sL43L
I1
sL44L
I1
sL45L
I1
sL46L
I1
sL47L
I1
sL48L
I11
sL49L
I2
sL50L
I1
sL51L
I1
sL52L
I1
sL53L
I1
sL54L
I5
sL55L
I22
sL56L
I2
sL57L
I7
sL58L
I4
sL59L
I1
sL60L
I1
sL61L
I1
sL62L
I2
sL63L
I1
sL64L
I1
sL65L
I1
sL66L
I2
sL67L
I1
sL68L
I1
sL69L
I2
sL70L
I1
sL71L
I1
sL72L
I1
sL73L
I1
sL74L
I1
sL75L
I1
sL76L
I1
sL77L
I1
sL78L
I1
sL79L
I2
sL80L
I1
sL81L
I1
sL82L
I5
sL83L
I1
sL84L
I1
sL85L
I1
sL86L
I1
sL87L
I1
sL88L
I2
sL89L
I1
sL90L
I1
sL91L
I59
sL92L
I1
sL93L
I1
sL94L
I1
sL95L
I1
sL96L
I1
sL97L
I6
sL98L
I2
sL99L
I3
sL100L
I3
sL101L
I1
sL102L
I1
sL103L
I1
sL104L
I1
sL105L
I1
sL106L
I1
sL107L
I1
sL108L
I2
sL109L
I1
sL110L
I2
sL111L
I1
sL112L
I5
sL113L
I1
sL114L
I1
sL115L
I1
sL116L
I1
sL117L
I1
sL118L
I2
sL119L
I3
sL120L
I1
sL121L
I2
sL122L
I1
sL123L
I1
sL124L
I1
sL125L
I1
sL126L
I1
sL127L
I1
sL128L
I1
sL129L
I1
sL130L
I1
sL131L
I1
sL132L
I6
sL133L
I24
sL134L
I2
sL135L
I3
sL136L
I2
sL137L
I2
sL138L
I3
sL139L
I4
sL140L
I2
sL141L
I3
sL142L
I1
sL143L
I1
sL144L
I1
sL145L
I2
sL146L
I2
sL147L
I3
sL148L
I3
sL149L
I3
sL150L
I2
sL151L
I3
sL152L
I1
sL153L
I1
sL154L
I2
sL155L
I1
sL156L
I1
sL157L
I1
sL158L
I2
sL159L
I1
sL160L
I3
sL161L
I2
sL162L
I1
sL163L
I4
sL164L
I1
sL165L
I17
sL166L
I1
sL167L
I3
sL168L
I1
sL169L
I1
sL170L
I1
sL171L
I1
sL172L
I1
sL173L
I1
sL174L
I1
sL175L
I1
sL176L
I1
sL177L
I2
sL178L
I1
sL179L
I2
sL180L
I1
sL181L
I2
sL182L
I3
sL183L
I1
sL184L
I6
sL185L
I6
sL186L
I3
sL187L
I1
sL188L
I2
sL189L
I1
s.