(dp0
I0
I1
sL111L
I1
sL112L
I1
sL113L
I1
sL114L
I1
sL115L
I1
sL116L
I1
sL117L
I1
sL118L
I1
sL119L
I1
sL120L
I1
sL121L
I1
sL122L
I1
sL123L
I1
sL124L
I1
sL125L
I1
sL128L
I1
sL129L
I1
sL130L
I1
sL131L
I1
sL132L
I1
sL133L
I1
sL134L
I1
sL135L
I1
sL136L
I1
sL137L
I1
sL138L
I1
sL139L
I1
sL140L
I1
sL141L
I1
sL142L
I1
sL143L
I1
sL144L
I1
sL145L
I1
sL146L
I1
sL147L
I1
sL148L
I1
sL149L
I1
sL150L
I1
sL151L
I1
sL152L
I1
sL153L
I1
sL154L
I1
sL155L
I1
sL156L
I1
sL157L
I1
sL158L
I1
sL159L
I1
sL160L
I1
sL161L
I1
sL162L
I1
sL163L
I1
sL164L
I1
sL165L
I1
sL166L
I1
sL167L
I1
sL168L
I1
sL169L
I1
sL170L
I1
sL171L
I1
sL172L
I1
sL173L
I1
sL174L
I1
sL175L
I1
sL176L
I1
sL177L
I1
sL178L
I1
sL179L
I1
sL180L
I1
sL181L
I1
sL182L
I1
sL183L
I1
sL184L
I1
sL185L
I1
sL186L
I1
sL187L
I1
sL188L
I1
sL194L
I1
sL195L
I1
sL196L
I1
sL197L
I1
sL198L
I1
sL199L
I1
sL205L
I1
sL206L
I1
sL207L
I1
sL209L
I1
sL220L
I1
sL230L
I1
sL286L
I1
sL289L
I1
sL300L
I1
sL305L
I1
sL306L
I1
sL307L
I1
sL308L
I1
sL309L
I1
sL310L
I1
sL311L
I1
sL313L
I1
sL314L
I1
sL315L
I1
sL316L
I1
sL317L
I1
sL318L
I1
sL320L
I1
sL321L
I1
sL322L
I1
sL323L
I1
sL324L
I1
s.