(dp0
I0
I1
sL1026L
I1
sL1027L
I1
sL1028L
I1
sL1029L
I1
sL1030L
I1
sL1031L
I1
sL1032L
I1
sL1033L
I1
sL1034L
I1
sL1035L
I1
sL1036L
I1
sL1048L
I1
sL1060L
I1
sL1061L
I1
sL1062L
I1
sL1063L
I1
sL1064L
I1
sL1065L
I1
sL1066L
I1
sL1067L
I1
sL1068L
I1
sL1069L
I1
sL1070L
I1
sL1071L
I1
sL1072L
I1
sL1073L
I1
sL1074L
I1
sL1075L
I1
sL1076L
I1
sL1077L
I1
sL1078L
I1
sL1079L
I1
sL1080L
I1
sL1081L
I1
sL1082L
I1
sL1083L
I1
sL1084L
I1
sL1085L
I1
sL1086L
I1
sL1087L
I1
sL1088L
I1
sL1089L
I1
sL1090L
I1
sL1091L
I1
sL1103L
I1
sL1104L
I1
sL1105L
I1
sL1106L
I1
sL1107L
I1
sL1108L
I1
sL1109L
I1
sL1110L
I1
sL1111L
I1
sL1112L
I1
sL1113L
I1
sL1117L
I1
sL1122L
I1
sL1123L
I1
sL1124L
I1
sL1125L
I1
sL1137L
I1
sL1138L
I1
sL1139L
I1
sL1140L
I1
sL1141L
I1
sL1142L
I1
sL1143L
I1
sL1144L
I1
sL1145L
I1
sL1152L
I1
sL1153L
I1
sL1154L
I1
sL1155L
I1
sL1165L
I1
sL1166L
I1
sL1167L
I1
sL1168L
I1
sL1169L
I1
sL1170L
I1
sL1171L
I1
sL1172L
I1
sL1173L
I1
sL1174L
I1
sL1175L
I1
sL1176L
I1
sL1177L
I1
sL1188L
I1
sL1189L
I1
sL1190L
I1
sL1191L
I1
sL1192L
I1
sL1193L
I1
sL1194L
I1
sL1195L
I1
sL1196L
I1
sL1197L
I1
sL1198L
I1
sL956L
I1
sL957L
I1
sL958L
I1
sL959L
I1
sL960L
I1
sL961L
I1
sL962L
I1
sL963L
I1
sL964L
I1
sL965L
I1
sL966L
I1
sL967L
I1
sL968L
I1
sL969L
I1
sL970L
I1
sL971L
I1
sL972L
I1
sL973L
I1
sL974L
I1
sL975L
I1
sL987L
I1
sL988L
I1
sL989L
I1
sL990L
I1
sL991L
I1
sL992L
I1
sL993L
I1
sL994L
I1
sL995L
I1
sL996L
I1
sL997L
I1
sL998L
I1
sL999L
I1
sL1000L
I1
sL1001L
I1
sL1002L
I1
sL1003L
I1
sL1004L
I1
sL1005L
I1
sL1006L
I1
sL1007L
I1
sL1008L
I1
sL1009L
I1
sL1010L
I1
sL1011L
I1
sL1012L
I1
sL1013L
I1
sL1014L
I1
s.